ccopy_reg
_reconstructor
p0
(csklearn.linear_model.base
LinearRegression
p1
c__builtin__
object
p2
Ntp3
Rp4
(dp5
S'normalize'
p6
I00
sS'n_jobs'
p7
I1
sS'rank_'
p8
I4
sS'fit_intercept'
p9
I01
sS'_residues'
p10
cnumpy.core.multiarray
scalar
p11
(cnumpy
dtype
p12
(S'f8'
p13
I0
I1
tp14
Rp15
(I3
S'<'
p16
NNNI-1
I-1
I0
tp17
bS'\xa7\x02\xc6\xd1\x81\xdf\xa9A'
p18
tp19
Rp20
sS'singular_'
p21
cnumpy.core.multiarray
_reconstruct
p22
(cnumpy
ndarray
p23
(I0
tp24
S'b'
p25
tp26
Rp27
(I1
(I4
tp28
g15
I00
S'*Vf\x004VK@\xf1S\xda6B\rD@\xec\x80\xa4\xdf\xc3 7@\xf6\x8b\xe6\x03\x97w1@'
p29
tp30
bsS'coef_'
p31
g22
(g23
(I0
tp32
g25
tp33
Rp34
(I1
(I4
tp35
g15
I00
S'\xa7\x15\xf8\x8a\x87\x8aZ@\x0c\t\x8a^\x1e\xd2.@8d\x89\xdc\xcf\xa6)@\x80\x9c\xad\xdf}C\\\xc0'
p36
tp37
bsS'_sklearn_version'
p38
S'0.18'
p39
sS'copy_X'
p40
I01
sS'intercept_'
p41
g11
(g15
S'&\xa1\xf5S\x13\xb9\x8c@'
p42
tp43
Rp44
sb.